; Function Attrs: mustprogress uwtable
define hidden void @_ZN2cv3ccm5ColorC2ENS_3MatERKNS0_10ColorSpaceE(ptr noundef nonnull align 8 dereferenceable(352) %0, ptr noundef nonnull %1, ptr noundef nonnull align 8 dereferenceable(200) %2) unnamed_addr #0 align 2 personality ptr @__gxx_personality_v0 {
  store ptr getelementptr inbounds inrange(-16, 16) (i8, ptr @_ZTVN2cv3ccm5ColorE, i64 16), ptr %0, align 8
  %4 = getelementptr inbounds i8, ptr %0, i64 8
  tail call void @_ZN2cv3MatC1ERKS0_(ptr noundef nonnull align 8 dereferenceable(96) %4, ptr noundef nonnull align 8 dereferenceable(96) %1)
  %5 = getelementptr inbounds i8, ptr %0, i64 104
  store ptr %2, ptr %5, align 8
  %6 = getelementptr inbounds i8, ptr %0, i64 112
  tail call void @_ZN2cv3MatC1Ev(ptr noundef nonnull align 8 dereferenceable(96) %6) #14
  %7 = getelementptr inbounds i8, ptr %0, i64 208
  tail call void @_ZN2cv3MatC1Ev(ptr noundef nonnull align 8 dereferenceable(96) %7) #14
  %8 = getelementptr inbounds i8, ptr %0, i64 312
  store i32 0, ptr %8, align 8
  %9 = getelementptr inbounds i8, ptr %0, i64 320
  store ptr null, ptr %9, align 8
  %10 = getelementptr inbounds i8, ptr %0, i64 328
  store ptr %8, ptr %10, align 8
  %11 = getelementptr inbounds i8, ptr %0, i64 336
  store ptr %8, ptr %11, align 8
  %12 = getelementptr inbounds i8, ptr %0, i64 344
  store i64 0, ptr %12, align 8
  ret void
}